target datalayout = "e-m:e-p270:32:32-p271:32:32-p272:64:64-i64:64-i128:128-f80:128-n8:16:32:64-S128"
target triple = "x86_64-pc-linux-gnu"

%struct.H5HL_t = type { i64, i64, i64, i64, i8, ptr, ptr, i64, i64, i64, ptr, i64, i64, ptr }

@H5HL_init_g = global i8 0, align 1
@H5_libterm_g = external global i8, align 1
@.str.2 = private unnamed_addr constant [98 x i8] c"generated/home/dtcxzyw/WorkSpace/Projects/compilers/llvm-opt-benchmark/bench/hdf5/hdf5/src/H5HL.c\00", align 1
@H5E_HEAP_g = external global i64, align 8
@__func__.H5HL_offset_into = private unnamed_addr constant [17 x i8] c"H5HL_offset_into\00", align 1
@H5E_CANTGET_g = external global i64, align 8
@.str.15 = private unnamed_addr constant [44 x i8] c"unable to offset into local heap data block\00", align 1

; Function Attrs: nounwind uwtable
define ptr @H5HL_offset_into(ptr noundef %0, i64 noundef %1) #0 {
  %3 = alloca ptr, align 8
  %4 = alloca i64, align 8
  %5 = alloca ptr, align 8
  %6 = alloca i8, align 1
  store ptr %0, ptr %3, align 8, !tbaa !12
  store i64 %1, ptr %4, align 8, !tbaa !8
  call void @llvm.lifetime.start.p0(i64 8, ptr %5) #6
  store ptr null, ptr %5, align 8, !tbaa !54
  call void @llvm.lifetime.start.p0(i64 1, ptr %6) #6
  store i8 0, ptr %6, align 1, !tbaa !18
  %7 = load i8, ptr @H5HL_init_g, align 1, !tbaa !18, !range !20, !noundef !21
  %8 = trunc i8 %7 to i1
  br i1 %8, label %13, label %9

9:                                                ; preds = %2
  %10 = load i8, ptr @H5_libterm_g, align 1, !tbaa !18, !range !20, !noundef !21
  %11 = trunc i8 %10 to i1
  %12 = xor i1 %11, true
  br label %13

13:                                               ; preds = %9, %2
  %14 = phi i1 [ false, %2 ], [ %12, %9 ]
  %15 = xor i1 %14, true
  %16 = xor i1 %15, true
  %17 = zext i1 %16 to i32
  %18 = sext i32 %17 to i64
  %19 = call i64 @llvm.expect.i64(i64 %18, i64 0)
  %20 = icmp ne i64 %19, 0
  br i1 %20, label %21, label %22

21:                                               ; preds = %13
  store i8 1, ptr @H5HL_init_g, align 1, !tbaa !18
  br label %22

22:                                               ; preds = %21, %13
  %23 = load i8, ptr @H5HL_init_g, align 1, !tbaa !18, !range !20, !noundef !21
  %24 = trunc i8 %23 to i1
  br i1 %24, label %29, label %25

25:                                               ; preds = %22
  %26 = load i8, ptr @H5_libterm_g, align 1, !tbaa !18, !range !20, !noundef !21
  %27 = trunc i8 %26 to i1
  %28 = xor i1 %27, true
  br label %29

29:                                               ; preds = %25, %22
  %30 = phi i1 [ true, %22 ], [ %28, %25 ]
  %31 = xor i1 %30, true
  %32 = xor i1 %31, true
  %33 = zext i1 %32 to i32
  %34 = sext i32 %33 to i64
  %35 = call i64 @llvm.expect.i64(i64 %34, i64 1)
  %36 = icmp ne i64 %35, 0
  br i1 %36, label %37, label %69

37:                                               ; preds = %29
  %38 = load i64, ptr %4, align 8, !tbaa !8
  %39 = load ptr, ptr %3, align 8, !tbaa !12
  %40 = getelementptr inbounds nuw %struct.H5HL_t, ptr %39, i32 0, i32 12
  %41 = load i64, ptr %40, align 8, !tbaa !30
  %42 = icmp uge i64 %38, %41
  br i1 %42, label %43, label %62

43:                                               ; preds = %37
  br label %44

44:                                               ; preds = %43
  br label %45

45:                                               ; preds = %44
  br label %46

46:                                               ; preds = %45
  %47 = load i64, ptr @H5E_HEAP_g, align 8, !tbaa !8
  %48 = load i64, ptr @H5E_CANTGET_g, align 8, !tbaa !8
  %49 = call i32 (ptr, ptr, i32, i64, i64, ptr, ...) @H5E_printf_stack(ptr noundef @.str.2, ptr noundef @__func__.H5HL_offset_into, i32 noundef 392, i64 noundef %47, i64 noundef %48, ptr noundef @.str.15)
  br label %50

50:                                               ; preds = %46
  br label %51

51:                                               ; preds = %50
  store i8 1, ptr %6, align 1, !tbaa !18
  %52 = load i8, ptr %6, align 1, !tbaa !18, !range !20, !noundef !21
  %53 = trunc i8 %52 to i1
  %54 = zext i1 %53 to i8
  store i8 %54, ptr %6, align 1, !tbaa !18
  br label %55

55:                                               ; preds = %51
  br label %56

56:                                               ; preds = %55
  br label %57

57:                                               ; preds = %56
  store ptr null, ptr %5, align 8, !tbaa !54
  br label %68

58:                                               ; No predecessors!
  br label %59

59:                                               ; preds = %58
  br label %60

60:                                               ; preds = %59
  br label %61

61:                                               ; preds = %60
  br label %62

62:                                               ; preds = %61, %37
  %63 = load ptr, ptr %3, align 8, !tbaa !12
  %64 = getelementptr inbounds nuw %struct.H5HL_t, ptr %63, i32 0, i32 13
  %65 = load ptr, ptr %64, align 8, !tbaa !31
  %66 = load i64, ptr %4, align 8, !tbaa !8
  %67 = getelementptr inbounds nuw i8, ptr %65, i64 %66
  store ptr %67, ptr %5, align 8, !tbaa !54
  br label %68

68:                                               ; preds = %62, %57
  br label %69

69:                                               ; preds = %68, %29
  %70 = load ptr, ptr %5, align 8, !tbaa !54
  call void @llvm.lifetime.end.p0(i64 1, ptr %6) #6
  call void @llvm.lifetime.end.p0(i64 8, ptr %5) #6
  ret ptr %70
}