; Function Attrs: nounwind uwtable
define ptr @H5HL_offset_into(ptr noundef readonly captures(none) %0, i64 noundef %1) local_unnamed_addr #0 {
  %3 = load i8, ptr @H5HL_init_g, align 1, !tbaa !3, !range !7, !noundef !8
  %4 = trunc nuw i8 %3 to i1
  %5 = load i8, ptr @H5_libterm_g, align 1, !range !7
  %6 = trunc nuw i8 %5 to i1
  %7 = select i1 %4, i1 true, i1 %6
  br i1 %7, label %8, label %.thread, !prof !9

.thread:                                          ; preds = %2
  store i8 1, ptr @H5HL_init_g, align 1, !tbaa !3
  br label %11

8:                                                ; preds = %2
  %9 = xor i1 %6, true
  %10 = select i1 %4, i1 true, i1 %9
  br i1 %10, label %11, label %22, !prof !10

11:                                               ; preds = %.thread, %8
  %12 = getelementptr inbounds nuw i8, ptr %0, i64 96
  %13 = load i64, ptr %12, align 8, !tbaa !23
  %.not = icmp ult i64 %1, %13
  br i1 %.not, label %18, label %14

14:                                               ; preds = %11
  %15 = load i64, ptr @H5E_HEAP_g, align 8, !tbaa !20
  %16 = load i64, ptr @H5E_CANTGET_g, align 8, !tbaa !20
  %17 = tail call i32 (ptr, ptr, i32, i64, i64, ptr, ...) @H5E_printf_stack(ptr noundef nonnull @.str.2, ptr noundef nonnull @__func__.H5HL_offset_into, i32 noundef 392, i64 noundef %15, i64 noundef %16, ptr noundef nonnull @.str.15) #7
  br label %22

18:                                               ; preds = %11
  %19 = getelementptr inbounds nuw i8, ptr %0, i64 104
  %20 = load ptr, ptr %19, align 8, !tbaa !24
  %21 = getelementptr inbounds nuw i8, ptr %20, i64 %1
  br label %22

22:                                               ; preds = %14, %18, %8
  %.0 = phi ptr [ null, %14 ], [ %21, %18 ], [ null, %8 ]
  ret ptr %.0
}